target datalayout = "e-m:e-p270:32:32-p271:32:32-p272:64:64-i64:64-i128:128-f80:128-n8:16:32:64-S128"
target triple = "x86_64-pc-linux-gnu"

%class.Handle = type { ptr }
%class.JavaValue = type { i8, %"union.JavaValue::JavaCallValue" }
%"union.JavaValue::JavaCallValue" = type { double }

@_ZN9vmClasses8_klassesE = external global [0 x ptr], align 8
@_ZN6Symbol11_vm_symbolsE = external global [0 x ptr], align 8

; Function Attrs: mustprogress nounwind uwtable
define linkonce_odr hidden noundef ptr @_ZN9vmClasses11check_klassEP13InstanceKlass(ptr noundef %0) #1 comdat align 2 {
  %2 = alloca ptr, align 8
  store ptr %0, ptr %2, align 8
  %3 = load ptr, ptr %2, align 8
  ret ptr %3
}

; Function Attrs: mustprogress nounwind uwtable
define linkonce_odr hidden noundef ptr @_ZN9vmSymbols21void_method_signatureEv() #1 comdat align 2 {
  %1 = load ptr, ptr getelementptr inbounds ([0 x ptr], ptr @_ZN6Symbol11_vm_symbolsE, i64 0, i64 844), align 8
  ret ptr %1
}

; Function Attrs: mustprogress nounwind uwtable
define linkonce_odr hidden noundef ptr @_ZN9vmSymbols20printStackTrace_nameEv() #1 comdat align 2 {
  %1 = load ptr, ptr getelementptr inbounds ([0 x ptr], ptr @_ZN6Symbol11_vm_symbolsE, i64 0, i64 385), align 8
  ret ptr %1
}

; Function Attrs: mustprogress nounwind uwtable
define linkonce_odr hidden noundef ptr @_ZN9vmClasses15Throwable_klassEv() #1 comdat align 2 {
  %1 = load ptr, ptr getelementptr inbounds ([0 x ptr], ptr @_ZN9vmClasses8_klassesE, i64 0, i64 7), align 8
  %2 = call noundef ptr @_ZN9vmClasses11check_klassEP13InstanceKlass(ptr noundef %1)
  ret ptr %2
}

; Function Attrs: mustprogress nounwind uwtable
define linkonce_odr hidden void @_ZN9JavaValueC2E9BasicType(ptr noundef nonnull align 8 dereferenceable(16) %0, i8 noundef zeroext %1) unnamed_addr #1 comdat align 2 {
  %3 = alloca ptr, align 8
  %4 = alloca i8, align 1
  store ptr %0, ptr %3, align 8
  store i8 %1, ptr %4, align 1
  %5 = load ptr, ptr %3, align 8
  %6 = load i8, ptr %4, align 1
  %7 = getelementptr inbounds %class.JavaValue, ptr %5, i32 0, i32 0
  store i8 %6, ptr %7, align 8
  ret void
}

; Function Attrs: mustprogress nounwind uwtable
define hidden void @_ZN19java_lang_Throwable20java_printStackTraceE6HandleP10JavaThread(ptr %0, ptr noundef %1) #1 align 2 {
  %3 = alloca %class.Handle, align 8
  %4 = alloca ptr, align 8
  %5 = alloca %class.JavaValue, align 8
  %6 = alloca %class.Handle, align 8
  %7 = getelementptr inbounds %class.Handle, ptr %3, i32 0, i32 0
  store ptr %0, ptr %7, align 8
  store ptr %1, ptr %4, align 8
  call void @_ZN9JavaValueC2E9BasicType(ptr noundef nonnull align 8 dereferenceable(16) %5, i8 noundef zeroext 14)
  call void @llvm.memcpy.p0.p0.i64(ptr align 8 %6, ptr align 8 %3, i64 8, i1 false)
  %8 = call noundef ptr @_ZN9vmClasses15Throwable_klassEv()
  %9 = call noundef ptr @_ZN9vmSymbols20printStackTrace_nameEv()
  %10 = call noundef ptr @_ZN9vmSymbols21void_method_signatureEv()
  %11 = load ptr, ptr %4, align 8
  %12 = getelementptr inbounds %class.Handle, ptr %6, i32 0, i32 0
  %13 = load ptr, ptr %12, align 8
  call void @_ZN9JavaCalls12call_virtualEP9JavaValue6HandleP5KlassP6SymbolS6_P10JavaThread(ptr noundef %5, ptr %13, ptr noundef %8, ptr noundef %9, ptr noundef %10, ptr noundef %11)
  ret void
}