; Function Attrs: mustprogress nounwind uwtable
define hidden void @_ZN19java_lang_Throwable20java_printStackTraceE6HandleP10JavaThread(ptr %0, ptr noundef %1) local_unnamed_addr #0 align 2 {
  %3 = alloca %class.JavaValue, align 8
  store i8 14, ptr %3, align 8
  %4 = load ptr, ptr getelementptr inbounds (i8, ptr @_ZN9vmClasses8_klassesE, i64 56), align 8
  %5 = load ptr, ptr getelementptr inbounds (i8, ptr @_ZN6Symbol11_vm_symbolsE, i64 3080), align 8
  %6 = load ptr, ptr getelementptr inbounds (i8, ptr @_ZN6Symbol11_vm_symbolsE, i64 6752), align 8
  call void @_ZN9JavaCalls12call_virtualEP9JavaValue6HandleP5KlassP6SymbolS6_P10JavaThread(ptr noundef nonnull %3, ptr %0, ptr noundef %4, ptr noundef %5, ptr noundef %6, ptr noundef %1) #19
  ret void
}